; ModuleID = '31/1376.c'
source_filename = "31/1376.c"
target datalayout = "e-m:e-p270:32:32-p271:32:32-p272:64:64-i64:64-f80:128-n8:16:32:64-S128"
target triple = "x86_64-pc-linux-gnu"

%struct.student = type { [100 x i8], [100 x i8], [2 x i8], [100 x i8], [100 x i8], [100 x i8], %struct.student*, %struct.student* }

@.str = private unnamed_addr constant [3 x i8] c"%s\00", align 1
@.str.1 = private unnamed_addr constant [4 x i8] c"end\00", align 1
@.str.2 = private unnamed_addr constant [11 x i8] c"%s%s%s%s%s\00", align 1
@.str.3 = private unnamed_addr constant [19 x i8] c"%s %s %s %s %s %s\0A\00", align 1

; Function Attrs: noinline nounwind uwtable
define dso_local %struct.student* @create() #0 {
  %1 = alloca %struct.student*, align 8
  %2 = alloca %struct.student*, align 8
  %3 = alloca %struct.student*, align 8
  %4 = alloca %struct.student*, align 8
  %5 = alloca i32, align 4
  store i32 0, i32* %5, align 4
  %6 = call noalias i8* @malloc(i64 100) #4
  %7 = bitcast i8* %6 to %struct.student*
  store %struct.student* %7, %struct.student** %4, align 8
  store %struct.student* %7, %struct.student** %3, align 8
  %8 = load %struct.student*, %struct.student** %3, align 8
  %9 = getelementptr inbounds %struct.student, %struct.student* %8, i32 0, i32 0
  %10 = getelementptr inbounds [100 x i8], [100 x i8]* %9, i64 0, i64 0
  %11 = call i32 (i8*, ...) @__isoc99_scanf(i8* getelementptr inbounds ([3 x i8], [3 x i8]* @.str, i64 0, i64 0), i8* %10)
  br label %12

12:                                               ; preds = %50, %0
  %13 = load %struct.student*, %struct.student** %3, align 8
  %14 = getelementptr inbounds %struct.student, %struct.student* %13, i32 0, i32 0
  %15 = getelementptr inbounds [100 x i8], [100 x i8]* %14, i64 0, i64 0
  %16 = call i32 @strcmp(i8* %15, i8* getelementptr inbounds ([4 x i8], [4 x i8]* @.str.1, i64 0, i64 0)) #5
  %17 = icmp ne i32 %16, 0
  br i1 %17, label %18, label %58

18:                                               ; preds = %12
  %19 = load i32, i32* %5, align 4
  %20 = add nsw i32 %19, 1
  store i32 %20, i32* %5, align 4
  %21 = load %struct.student*, %struct.student** %3, align 8
  %22 = getelementptr inbounds %struct.student, %struct.student* %21, i32 0, i32 1
  %23 = getelementptr inbounds [100 x i8], [100 x i8]* %22, i64 0, i64 0
  %24 = load %struct.student*, %struct.student** %3, align 8
  %25 = getelementptr inbounds %struct.student, %struct.student* %24, i32 0, i32 2
  %26 = getelementptr inbounds [2 x i8], [2 x i8]* %25, i64 0, i64 0
  %27 = load %struct.student*, %struct.student** %3, align 8
  %28 = getelementptr inbounds %struct.student, %struct.student* %27, i32 0, i32 3
  %29 = getelementptr inbounds [100 x i8], [100 x i8]* %28, i64 0, i64 0
  %30 = load %struct.student*, %struct.student** %3, align 8
  %31 = getelementptr inbounds %struct.student, %struct.student* %30, i32 0, i32 4
  %32 = getelementptr inbounds [100 x i8], [100 x i8]* %31, i64 0, i64 0
  %33 = load %struct.student*, %struct.student** %3, align 8
  %34 = getelementptr inbounds %struct.student, %struct.student* %33, i32 0, i32 5
  %35 = getelementptr inbounds [100 x i8], [100 x i8]* %34, i64 0, i64 0
  %36 = call i32 (i8*, ...) @__isoc99_scanf(i8* getelementptr inbounds ([11 x i8], [11 x i8]* @.str.2, i64 0, i64 0), i8* %23, i8* %26, i8* %29, i8* %32, i8* %35)
  %37 = load i32, i32* %5, align 4
  %38 = icmp eq i32 %37, 1
  br i1 %38, label %39, label %43

39:                                               ; preds = %18
  %40 = load %struct.student*, %struct.student** %3, align 8
  store %struct.student* %40, %struct.student** %1, align 8
  %41 = load %struct.student*, %struct.student** %3, align 8
  %42 = getelementptr inbounds %struct.student, %struct.student* %41, i32 0, i32 6
  store %struct.student* null, %struct.student** %42, align 8
  br label %50

43:                                               ; preds = %18
  %44 = load %struct.student*, %struct.student** %3, align 8
  %45 = load %struct.student*, %struct.student** %4, align 8
  %46 = getelementptr inbounds %struct.student, %struct.student* %45, i32 0, i32 7
  store %struct.student* %44, %struct.student** %46, align 8
  %47 = load %struct.student*, %struct.student** %4, align 8
  %48 = load %struct.student*, %struct.student** %3, align 8
  %49 = getelementptr inbounds %struct.student, %struct.student* %48, i32 0, i32 6
  store %struct.student* %47, %struct.student** %49, align 8
  br label %50

50:                                               ; preds = %43, %39
  %51 = load %struct.student*, %struct.student** %3, align 8
  store %struct.student* %51, %struct.student** %4, align 8
  %52 = call noalias i8* @malloc(i64 100) #4
  %53 = bitcast i8* %52 to %struct.student*
  store %struct.student* %53, %struct.student** %3, align 8
  %54 = load %struct.student*, %struct.student** %3, align 8
  %55 = getelementptr inbounds %struct.student, %struct.student* %54, i32 0, i32 0
  %56 = getelementptr inbounds [100 x i8], [100 x i8]* %55, i64 0, i64 0
  %57 = call i32 (i8*, ...) @__isoc99_scanf(i8* getelementptr inbounds ([3 x i8], [3 x i8]* @.str, i64 0, i64 0), i8* %56)
  br label %12

58:                                               ; preds = %12
  %59 = load %struct.student*, %struct.student** %4, align 8
  %60 = getelementptr inbounds %struct.student, %struct.student* %59, i32 0, i32 7
  store %struct.student* null, %struct.student** %60, align 8
  %61 = load %struct.student*, %struct.student** %4, align 8
  store %struct.student* %61, %struct.student** %2, align 8
  %62 = load %struct.student*, %struct.student** %2, align 8
  ret %struct.student* %62
}

; Function Attrs: nounwind
declare dso_local noalias i8* @malloc(i64) #1

declare dso_local i32 @__isoc99_scanf(i8*, ...) #2

; Function Attrs: nounwind readonly
declare dso_local i32 @strcmp(i8*, i8*) #3

; Function Attrs: noinline nounwind uwtable
define dso_local void @print(%struct.student* %0) #0 {
  %2 = alloca %struct.student*, align 8
  %3 = alloca %struct.student*, align 8
  store %struct.student* %0, %struct.student** %2, align 8
  %4 = load %struct.student*, %struct.student** %2, align 8
  store %struct.student* %4, %struct.student** %3, align 8
  br label %5

5:                                                ; preds = %28, %1
  %6 = load %struct.student*, %struct.student** %3, align 8
  %7 = getelementptr inbounds %struct.student, %struct.student* %6, i32 0, i32 0
  %8 = getelementptr inbounds [100 x i8], [100 x i8]* %7, i64 0, i64 0
  %9 = load %struct.student*, %struct.student** %3, align 8
  %10 = getelementptr inbounds %struct.student, %struct.student* %9, i32 0, i32 1
  %11 = getelementptr inbounds [100 x i8], [100 x i8]* %10, i64 0, i64 0
  %12 = load %struct.student*, %struct.student** %3, align 8
  %13 = getelementptr inbounds %struct.student, %struct.student* %12, i32 0, i32 2
  %14 = getelementptr inbounds [2 x i8], [2 x i8]* %13, i64 0, i64 0
  %15 = load %struct.student*, %struct.student** %3, align 8
  %16 = getelementptr inbounds %struct.student, %struct.student* %15, i32 0, i32 3
  %17 = getelementptr inbounds [100 x i8], [100 x i8]* %16, i64 0, i64 0
  %18 = load %struct.student*, %struct.student** %3, align 8
  %19 = getelementptr inbounds %struct.student, %struct.student* %18, i32 0, i32 4
  %20 = getelementptr inbounds [100 x i8], [100 x i8]* %19, i64 0, i64 0
  %21 = load %struct.student*, %struct.student** %3, align 8
  %22 = getelementptr inbounds %struct.student, %struct.student* %21, i32 0, i32 5
  %23 = getelementptr inbounds [100 x i8], [100 x i8]* %22, i64 0, i64 0
  %24 = call i32 (i8*, ...) @printf(i8* getelementptr inbounds ([19 x i8], [19 x i8]* @.str.3, i64 0, i64 0), i8* %8, i8* %11, i8* %14, i8* %17, i8* %20, i8* %23)
  %25 = load %struct.student*, %struct.student** %3, align 8
  %26 = getelementptr inbounds %struct.student, %struct.student* %25, i32 0, i32 6
  %27 = load %struct.student*, %struct.student** %26, align 8
  store %struct.student* %27, %struct.student** %3, align 8
  br label %28

28:                                               ; preds = %5
  %29 = load %struct.student*, %struct.student** %3, align 8
  %30 = icmp ne %struct.student* %29, null
  br i1 %30, label %5, label %31

31:                                               ; preds = %28
  ret void
}

declare dso_local i32 @printf(i8*, ...) #2

; Function Attrs: noinline nounwind uwtable
define dso_local void @main() #0 {
  %1 = alloca %struct.student*, align 8
  %2 = call %struct.student* @create()
  store %struct.student* %2, %struct.student** %1, align 8
  %3 = load %struct.student*, %struct.student** %1, align 8
  call void @print(%struct.student* %3)
  ret void
}


!llvm.module.flags = !{!0}
!llvm.ident = !{!1}

!0 = !{i32 1, !"wchar_size", i32 4}
!1 = !{!"clang version 10.0.0-4ubuntu1 "}
